; Function Attrs: nofree nounwind uwtable
define void @Gia_ManPrintCo_rec(ptr noundef %0, ptr noundef %1) local_unnamed_addr #15 {
  %.val = load i64, ptr %1, align 4
  %3 = and i64 %.val, 2147483648
  %.not.i = icmp ne i64 %3, 0
  %4 = and i64 %.val, 536870911
  %5 = icmp eq i64 %4, 536870911
  %narrow.i.not = or i1 %.not.i, %5
  br i1 %narrow.i.not, label %Gia_ObjIsMux.exit.thread, label %6

6:                                                ; preds = %2
  %7 = sub nsw i64 0, %4
  %8 = getelementptr inbounds %struct.Gia_Obj_t_, ptr %1, i64 %7
  tail call void @Gia_ManPrintCo_rec(ptr noundef %0, ptr noundef nonnull %8)
  %9 = load i64, ptr %1, align 4
  %10 = lshr i64 %9, 32
  %11 = and i64 %10, 536870911
  %12 = sub nsw i64 0, %11
  %13 = getelementptr inbounds %struct.Gia_Obj_t_, ptr %1, i64 %12
  tail call void @Gia_ManPrintCo_rec(ptr noundef %0, ptr noundef nonnull %13)
  %14 = getelementptr i8, ptr %0, i64 32
  %.val13 = load ptr, ptr %14, align 8
  %15 = getelementptr i8, ptr %0, i64 40
  %.val14 = load ptr, ptr %15, align 8
  %.not.i.i = icmp eq ptr %.val14, null
  br i1 %.not.i.i, label %Gia_ObjIsMux.exit.thread, label %Gia_ObjIsMux.exit

Gia_ObjIsMux.exit:                                ; preds = %6
  %16 = ptrtoint ptr %1 to i64
  %17 = ptrtoint ptr %.val13 to i64
  %18 = sub i64 %16, %17
  %19 = sdiv exact i64 %18, 12
  %sext.i = shl i64 %19, 32
  %20 = ashr exact i64 %sext.i, 30
  %21 = getelementptr inbounds i8, ptr %.val14, i64 %20
  %22 = load i32, ptr %21, align 4
  %.not = icmp eq i32 %22, 0
  br i1 %.not, label %Gia_ObjIsMux.exit.thread, label %Gia_ObjFanin2.exit

Gia_ObjFanin2.exit:                               ; preds = %Gia_ObjIsMux.exit
  %23 = ashr i32 %22, 1
  %24 = sext i32 %23 to i64
  %25 = getelementptr inbounds %struct.Gia_Obj_t_, ptr %.val13, i64 %24
  tail call void @Gia_ManPrintCo_rec(ptr noundef nonnull %0, ptr noundef %25)
  br label %Gia_ObjIsMux.exit.thread

Gia_ObjIsMux.exit.thread:                         ; preds = %6, %Gia_ObjIsMux.exit, %Gia_ObjFanin2.exit, %2
  tail call void @Gia_ObjPrint(ptr noundef %0, ptr noundef nonnull %1)
  ret void
}